target datalayout = "e-m:e-p270:32:32-p271:32:32-p272:64:64-i64:64-i128:128-f80:128-n8:16:32:64-S128"
target triple = "x86_64-unknown-linux-gnu"

%"class.base::ThreadChecker" = type { i8 }
%"class.base::debug::GlobalActivityTracker::ManagedActivityTracker" = type { %"class.base::debug::ThreadActivityTracker.base", i32, ptr }
%"class.base::debug::ThreadActivityTracker.base" = type <{ ptr, ptr, ptr, i32, i8, %"class.base::ThreadChecker" }>

; Function Attrs: mustprogress uwtable
define dso_local void @_ZN4base5debug21GlobalActivityTracker22ManagedActivityTrackerC2EjPvm(ptr noundef nonnull align 8 dereferenceable(48) %this, i32 noundef %mem_reference, ptr noundef %base, i64 noundef %size) unnamed_addr #0 align 2 {
entry:
  %this.addr = alloca ptr, align 8
  %mem_reference.addr = alloca i32, align 4
  %base.addr = alloca ptr, align 8
  %size.addr = alloca i64, align 8
  store ptr %this, ptr %this.addr, align 8
  store i32 %mem_reference, ptr %mem_reference.addr, align 4
  store ptr %base, ptr %base.addr, align 8
  store i64 %size, ptr %size.addr, align 8
  %this1 = load ptr, ptr %this.addr, align 8
  %0 = load ptr, ptr %base.addr, align 8
  %1 = load i64, ptr %size.addr, align 8
  call void @_ZN4base5debug21ThreadActivityTrackerC2EPvm(ptr noundef nonnull align 8 dereferenceable(30) %this1, ptr noundef %0, i64 noundef %1)
  store ptr getelementptr inbounds ({ [4 x ptr] }, ptr @_ZTVN4base5debug21GlobalActivityTracker22ManagedActivityTrackerE, i32 0, i32 0, i32 2), ptr %this1, align 8
  %mem_reference_ = getelementptr inbounds %"class.base::debug::GlobalActivityTracker::ManagedActivityTracker", ptr %this1, i32 0, i32 1
  %2 = load i32, ptr %mem_reference.addr, align 4
  store i32 %2, ptr %mem_reference_, align 8
  %mem_base_ = getelementptr inbounds %"class.base::debug::GlobalActivityTracker::ManagedActivityTracker", ptr %this1, i32 0, i32 2
  %3 = load ptr, ptr %base.addr, align 8
  store ptr %3, ptr %mem_base_, align 8
  ret void
}