; Function Attrs: mustprogress uwtable
define dso_local void @_ZN4base5debug21GlobalActivityTracker22ManagedActivityTrackerC2EjPvm(ptr nocapture noundef nonnull align 8 dereferenceable(48) %this, i32 noundef %mem_reference, ptr noundef %base, i64 noundef %size) unnamed_addr #1 align 2 {
entry:
  tail call void @_ZN4base5debug21ThreadActivityTrackerC2EPvm(ptr noundef nonnull align 8 dereferenceable(30) %this, ptr noundef %base, i64 noundef %size)
  store ptr getelementptr inbounds ({ [4 x ptr] }, ptr @_ZTVN4base5debug21GlobalActivityTracker22ManagedActivityTrackerE, i64 0, i32 0, i64 2), ptr %this, align 8
  %mem_reference_ = getelementptr inbounds i8, ptr %this, i64 32
  store i32 %mem_reference, ptr %mem_reference_, align 8
  %mem_base_ = getelementptr inbounds i8, ptr %this, i64 40
  store ptr %base, ptr %mem_base_, align 8
  ret void
}